target datalayout = "e-m:e-p270:32:32-p271:32:32-p272:64:64-i64:64-i128:128-f80:128-n8:16:32:64-S128"
target triple = "x86_64-unknown-linux-gnu"

%struct.ggml_tensor = type { i32, i32, ptr, [4 x i64], [4 x i64], i32, [16 x i32], i8, ptr, [10 x ptr], i32, i64, i64, ptr, i64, ptr, [64 x i8], ptr, [8 x i8] }

@stderr = external global ptr, align 8
@stdout = external global ptr, align 8
@.str.2 = private unnamed_addr constant [24 x i8] c"GGML_ASSERT: %s:%d: %s\0A\00", align 1
@.str.3 = private unnamed_addr constant [114 x i8] c"generated/home/dtcxzyw/WorkSpace/Projects/compilers/llvm-opt-benchmark/bench/llama.cpp/llama.cpp/common/train.cpp\00", align 1
@.str.4 = private unnamed_addr constant [21 x i8] c"tensor->ne[0] == ne0\00", align 1
@.str.7 = private unnamed_addr constant [19 x i8] c"tensor->ne[3] == 1\00", align 1
@.str.8 = private unnamed_addr constant [21 x i8] c"tensor->ne[1] == ne1\00", align 1
@.str.9 = private unnamed_addr constant [21 x i8] c"tensor->ne[2] == ne2\00", align 1

; Function Attrs: mustprogress uwtable
define void @_Z15assert_shape_3dP11ggml_tensorlll(ptr noundef %tensor, i64 noundef %ne0, i64 noundef %ne1, i64 noundef %ne2) #4 {
entry:
  %tensor.addr = alloca ptr, align 8
  %ne0.addr = alloca i64, align 8
  %ne1.addr = alloca i64, align 8
  %ne2.addr = alloca i64, align 8
  store ptr %tensor, ptr %tensor.addr, align 8
  store i64 %ne0, ptr %ne0.addr, align 8
  store i64 %ne1, ptr %ne1.addr, align 8
  store i64 %ne2, ptr %ne2.addr, align 8
  br label %do.body

do.body:                                          ; preds = %entry
  %0 = load ptr, ptr %tensor.addr, align 8
  %ne = getelementptr inbounds %struct.ggml_tensor, ptr %0, i32 0, i32 3
  %arrayidx = getelementptr inbounds [4 x i64], ptr %ne, i64 0, i64 0
  %1 = load i64, ptr %arrayidx, align 8
  %2 = load i64, ptr %ne0.addr, align 8
  %cmp = icmp eq i64 %1, %2
  br i1 %cmp, label %if.end, label %if.then

if.then:                                          ; preds = %do.body
  %3 = load ptr, ptr @stdout, align 8
  %call = call i32 @fflush(ptr noundef %3)
  %4 = load ptr, ptr @stderr, align 8
  %call1 = call i32 (ptr, ptr, ...) @fprintf(ptr noundef %4, ptr noundef @.str.2, ptr noundef @.str.3, i32 noundef 200, ptr noundef @.str.4)
  call void @ggml_print_backtrace()
  call void @abort() #21
  unreachable

if.end:                                           ; preds = %do.body
  br label %do.end

do.end:                                           ; preds = %if.end
  br label %do.body2

do.body2:                                         ; preds = %do.end
  %5 = load ptr, ptr %tensor.addr, align 8
  %ne3 = getelementptr inbounds %struct.ggml_tensor, ptr %5, i32 0, i32 3
  %arrayidx4 = getelementptr inbounds [4 x i64], ptr %ne3, i64 0, i64 1
  %6 = load i64, ptr %arrayidx4, align 8
  %7 = load i64, ptr %ne1.addr, align 8
  %cmp5 = icmp eq i64 %6, %7
  br i1 %cmp5, label %if.end9, label %if.then6

if.then6:                                         ; preds = %do.body2
  %8 = load ptr, ptr @stdout, align 8
  %call7 = call i32 @fflush(ptr noundef %8)
  %9 = load ptr, ptr @stderr, align 8
  %call8 = call i32 (ptr, ptr, ...) @fprintf(ptr noundef %9, ptr noundef @.str.2, ptr noundef @.str.3, i32 noundef 201, ptr noundef @.str.8)
  call void @ggml_print_backtrace()
  call void @abort() #21
  unreachable

if.end9:                                          ; preds = %do.body2
  br label %do.end10

do.end10:                                         ; preds = %if.end9
  br label %do.body11

do.body11:                                        ; preds = %do.end10
  %10 = load ptr, ptr %tensor.addr, align 8
  %ne12 = getelementptr inbounds %struct.ggml_tensor, ptr %10, i32 0, i32 3
  %arrayidx13 = getelementptr inbounds [4 x i64], ptr %ne12, i64 0, i64 2
  %11 = load i64, ptr %arrayidx13, align 8
  %12 = load i64, ptr %ne2.addr, align 8
  %cmp14 = icmp eq i64 %11, %12
  br i1 %cmp14, label %if.end18, label %if.then15

if.then15:                                        ; preds = %do.body11
  %13 = load ptr, ptr @stdout, align 8
  %call16 = call i32 @fflush(ptr noundef %13)
  %14 = load ptr, ptr @stderr, align 8
  %call17 = call i32 (ptr, ptr, ...) @fprintf(ptr noundef %14, ptr noundef @.str.2, ptr noundef @.str.3, i32 noundef 202, ptr noundef @.str.9)
  call void @ggml_print_backtrace()
  call void @abort() #21
  unreachable

if.end18:                                         ; preds = %do.body11
  br label %do.end19

do.end19:                                         ; preds = %if.end18
  br label %do.body20

do.body20:                                        ; preds = %do.end19
  %15 = load ptr, ptr %tensor.addr, align 8
  %ne21 = getelementptr inbounds %struct.ggml_tensor, ptr %15, i32 0, i32 3
  %arrayidx22 = getelementptr inbounds [4 x i64], ptr %ne21, i64 0, i64 3
  %16 = load i64, ptr %arrayidx22, align 8
  %cmp23 = icmp eq i64 %16, 1
  br i1 %cmp23, label %if.end27, label %if.then24

if.then24:                                        ; preds = %do.body20
  %17 = load ptr, ptr @stdout, align 8
  %call25 = call i32 @fflush(ptr noundef %17)
  %18 = load ptr, ptr @stderr, align 8
  %call26 = call i32 (ptr, ptr, ...) @fprintf(ptr noundef %18, ptr noundef @.str.2, ptr noundef @.str.3, i32 noundef 203, ptr noundef @.str.7)
  call void @ggml_print_backtrace()
  call void @abort() #21
  unreachable

if.end27:                                         ; preds = %do.body20
  br label %do.end28

do.end28:                                         ; preds = %if.end27
  ret void
}